target datalayout = "e-m:e-p270:32:32-p271:32:32-p272:64:64-i64:64-i128:128-f80:128-n8:16:32:64-S128"
target triple = "x86_64-pc-linux-gnu"

%struct.Curl_addrinfo = type { i32, i32, i32, i32, i32, ptr, ptr, ptr }
%struct.addrinfo = type { i32, i32, i32, i32, i32, ptr, ptr, ptr }

@Curl_cfree = external global ptr, align 8
@Curl_cmalloc = external global ptr, align 8

; Function Attrs: nounwind uwtable
define hidden void @Curl_freeaddrinfo(ptr noundef %0) #0 {
  %2 = alloca ptr, align 8
  %3 = alloca ptr, align 8
  %4 = alloca ptr, align 8
  store ptr %0, ptr %2, align 8, !tbaa !3
  call void @llvm.lifetime.start.p0(i64 8, ptr %3) #7
  call void @llvm.lifetime.start.p0(i64 8, ptr %4) #7
  %5 = load ptr, ptr %2, align 8, !tbaa !3
  store ptr %5, ptr %4, align 8, !tbaa !3
  br label %6

6:                                                ; preds = %15, %1
  %7 = load ptr, ptr %4, align 8, !tbaa !3
  %8 = icmp ne ptr %7, null
  br i1 %8, label %9, label %17

9:                                                ; preds = %6
  %10 = load ptr, ptr %4, align 8, !tbaa !3
  %11 = getelementptr inbounds nuw %struct.Curl_addrinfo, ptr %10, i32 0, i32 7
  %12 = load ptr, ptr %11, align 8, !tbaa !8
  store ptr %12, ptr %3, align 8, !tbaa !3
  %13 = load ptr, ptr @Curl_cfree, align 8, !tbaa !13
  %14 = load ptr, ptr %4, align 8, !tbaa !3
  call void %13(ptr noundef %14)
  br label %15

15:                                               ; preds = %9
  %16 = load ptr, ptr %3, align 8, !tbaa !3
  store ptr %16, ptr %4, align 8, !tbaa !3
  br label %6, !llvm.loop !14

17:                                               ; preds = %6
  call void @llvm.lifetime.end.p0(i64 8, ptr %4) #7
  call void @llvm.lifetime.end.p0(i64 8, ptr %3) #7
  ret void
}

; Function Attrs: nounwind uwtable
define hidden i32 @Curl_getaddrinfo_ex(ptr noundef %0, ptr noundef %1, ptr noundef %2, ptr noundef %3) #0 {
  %5 = alloca i32, align 4
  %6 = alloca ptr, align 8
  %7 = alloca ptr, align 8
  %8 = alloca ptr, align 8
  %9 = alloca ptr, align 8
  %10 = alloca ptr, align 8
  %11 = alloca ptr, align 8
  %12 = alloca ptr, align 8
  %13 = alloca ptr, align 8
  %14 = alloca ptr, align 8
  %15 = alloca i64, align 8
  %16 = alloca i32, align 4
  %17 = alloca i32, align 4
  %18 = alloca i64, align 8
  store ptr %0, ptr %6, align 8, !tbaa !16
  store ptr %1, ptr %7, align 8, !tbaa !16
  store ptr %2, ptr %8, align 8, !tbaa !17
  store ptr %3, ptr %9, align 8, !tbaa !19
  call void @llvm.lifetime.start.p0(i64 8, ptr %10) #7
  call void @llvm.lifetime.start.p0(i64 8, ptr %11) #7
  call void @llvm.lifetime.start.p0(i64 8, ptr %12) #7
  store ptr null, ptr %12, align 8, !tbaa !3
  call void @llvm.lifetime.start.p0(i64 8, ptr %13) #7
  store ptr null, ptr %13, align 8, !tbaa !3
  call void @llvm.lifetime.start.p0(i64 8, ptr %14) #7
  call void @llvm.lifetime.start.p0(i64 8, ptr %15) #7
  call void @llvm.lifetime.start.p0(i64 4, ptr %16) #7
  %19 = load ptr, ptr %9, align 8, !tbaa !19
  store ptr null, ptr %19, align 8, !tbaa !3
  %20 = load ptr, ptr %6, align 8, !tbaa !16
  %21 = load ptr, ptr %7, align 8, !tbaa !16
  %22 = load ptr, ptr %8, align 8, !tbaa !17
  %23 = call i32 @getaddrinfo(ptr noundef %20, ptr noundef %21, ptr noundef %22, ptr noundef %11)
  store i32 %23, ptr %16, align 4, !tbaa !21
  %24 = load i32, ptr %16, align 4, !tbaa !21
  %25 = icmp ne i32 %24, 0
  br i1 %25, label %26, label %28

26:                                               ; preds = %4
  %27 = load i32, ptr %16, align 4, !tbaa !21
  store i32 %27, ptr %5, align 4
  store i32 1, ptr %17, align 4
  br label %188

28:                                               ; preds = %4
  %29 = load ptr, ptr %11, align 8, !tbaa !17
  store ptr %29, ptr %10, align 8, !tbaa !17
  br label %30

30:                                               ; preds = %165, %28
  %31 = load ptr, ptr %10, align 8, !tbaa !17
  %32 = icmp ne ptr %31, null
  br i1 %32, label %33, label %169

33:                                               ; preds = %30
  call void @llvm.lifetime.start.p0(i64 8, ptr %18) #7
  %34 = load ptr, ptr %10, align 8, !tbaa !17
  %35 = getelementptr inbounds nuw %struct.addrinfo, ptr %34, i32 0, i32 6
  %36 = load ptr, ptr %35, align 8, !tbaa !22
  %37 = icmp ne ptr %36, null
  br i1 %37, label %38, label %44

38:                                               ; preds = %33
  %39 = load ptr, ptr %10, align 8, !tbaa !17
  %40 = getelementptr inbounds nuw %struct.addrinfo, ptr %39, i32 0, i32 6
  %41 = load ptr, ptr %40, align 8, !tbaa !22
  %42 = call i64 @strlen(ptr noundef %41) #8
  %43 = add i64 %42, 1
  br label %45

44:                                               ; preds = %33
  br label %45

45:                                               ; preds = %44, %38
  %46 = phi i64 [ %43, %38 ], [ 0, %44 ]
  store i64 %46, ptr %18, align 8, !tbaa !24
  %47 = load ptr, ptr %10, align 8, !tbaa !17
  %48 = getelementptr inbounds nuw %struct.addrinfo, ptr %47, i32 0, i32 1
  %49 = load i32, ptr %48, align 4, !tbaa !26
  %50 = icmp eq i32 %49, 2
  br i1 %50, label %51, label %52

51:                                               ; preds = %45
  store i64 16, ptr %15, align 8, !tbaa !24
  br label %60

52:                                               ; preds = %45
  %53 = load ptr, ptr %10, align 8, !tbaa !17
  %54 = getelementptr inbounds nuw %struct.addrinfo, ptr %53, i32 0, i32 1
  %55 = load i32, ptr %54, align 4, !tbaa !26
  %56 = icmp eq i32 %55, 10
  br i1 %56, label %57, label %58

57:                                               ; preds = %52
  store i64 28, ptr %15, align 8, !tbaa !24
  br label %59

58:                                               ; preds = %52
  store i32 4, ptr %17, align 4
  br label %162

59:                                               ; preds = %57
  br label %60

60:                                               ; preds = %59, %51
  %61 = load ptr, ptr %10, align 8, !tbaa !17
  %62 = getelementptr inbounds nuw %struct.addrinfo, ptr %61, i32 0, i32 5
  %63 = load ptr, ptr %62, align 8, !tbaa !27
  %64 = icmp ne ptr %63, null
  br i1 %64, label %65, label %70

65:                                               ; preds = %60
  %66 = load ptr, ptr %10, align 8, !tbaa !17
  %67 = getelementptr inbounds nuw %struct.addrinfo, ptr %66, i32 0, i32 4
  %68 = load i32, ptr %67, align 8, !tbaa !28
  %69 = icmp ugt i32 %68, 0
  br i1 %69, label %71, label %70

70:                                               ; preds = %65, %60
  store i32 4, ptr %17, align 4
  br label %162

71:                                               ; preds = %65
  %72 = load ptr, ptr %10, align 8, !tbaa !17
  %73 = getelementptr inbounds nuw %struct.addrinfo, ptr %72, i32 0, i32 4
  %74 = load i32, ptr %73, align 8, !tbaa !28
  %75 = zext i32 %74 to i64
  %76 = load i64, ptr %15, align 8, !tbaa !24
  %77 = icmp ult i64 %75, %76
  br i1 %77, label %78, label %79

78:                                               ; preds = %71
  store i32 4, ptr %17, align 4
  br label %162

79:                                               ; preds = %71
  %80 = load ptr, ptr @Curl_cmalloc, align 8, !tbaa !13
  %81 = load i64, ptr %15, align 8, !tbaa !24
  %82 = add i64 48, %81
  %83 = load i64, ptr %18, align 8, !tbaa !24
  %84 = add i64 %82, %83
  %85 = call ptr %80(i64 noundef %84)
  store ptr %85, ptr %14, align 8, !tbaa !3
  %86 = load ptr, ptr %14, align 8, !tbaa !3
  %87 = icmp ne ptr %86, null
  br i1 %87, label %89, label %88

88:                                               ; preds = %79
  store i32 -10, ptr %16, align 4, !tbaa !21
  store i32 2, ptr %17, align 4
  br label %162

89:                                               ; preds = %79
  %90 = load ptr, ptr %10, align 8, !tbaa !17
  %91 = getelementptr inbounds nuw %struct.addrinfo, ptr %90, i32 0, i32 0
  %92 = load i32, ptr %91, align 8, !tbaa !29
  %93 = load ptr, ptr %14, align 8, !tbaa !3
  %94 = getelementptr inbounds nuw %struct.Curl_addrinfo, ptr %93, i32 0, i32 0
  store i32 %92, ptr %94, align 8, !tbaa !30
  %95 = load ptr, ptr %10, align 8, !tbaa !17
  %96 = getelementptr inbounds nuw %struct.addrinfo, ptr %95, i32 0, i32 1
  %97 = load i32, ptr %96, align 4, !tbaa !26
  %98 = load ptr, ptr %14, align 8, !tbaa !3
  %99 = getelementptr inbounds nuw %struct.Curl_addrinfo, ptr %98, i32 0, i32 1
  store i32 %97, ptr %99, align 4, !tbaa !31
  %100 = load ptr, ptr %10, align 8, !tbaa !17
  %101 = getelementptr inbounds nuw %struct.addrinfo, ptr %100, i32 0, i32 2
  %102 = load i32, ptr %101, align 8, !tbaa !32
  %103 = load ptr, ptr %14, align 8, !tbaa !3
  %104 = getelementptr inbounds nuw %struct.Curl_addrinfo, ptr %103, i32 0, i32 2
  store i32 %102, ptr %104, align 8, !tbaa !33
  %105 = load ptr, ptr %10, align 8, !tbaa !17
  %106 = getelementptr inbounds nuw %struct.addrinfo, ptr %105, i32 0, i32 3
  %107 = load i32, ptr %106, align 4, !tbaa !34
  %108 = load ptr, ptr %14, align 8, !tbaa !3
  %109 = getelementptr inbounds nuw %struct.Curl_addrinfo, ptr %108, i32 0, i32 3
  store i32 %107, ptr %109, align 4, !tbaa !35
  %110 = load i64, ptr %15, align 8, !tbaa !24
  %111 = trunc i64 %110 to i32
  %112 = load ptr, ptr %14, align 8, !tbaa !3
  %113 = getelementptr inbounds nuw %struct.Curl_addrinfo, ptr %112, i32 0, i32 4
  store i32 %111, ptr %113, align 8, !tbaa !36
  %114 = load ptr, ptr %14, align 8, !tbaa !3
  %115 = getelementptr inbounds nuw %struct.Curl_addrinfo, ptr %114, i32 0, i32 6
  store ptr null, ptr %115, align 8, !tbaa !37
  %116 = load ptr, ptr %14, align 8, !tbaa !3
  %117 = getelementptr inbounds nuw %struct.Curl_addrinfo, ptr %116, i32 0, i32 5
  store ptr null, ptr %117, align 8, !tbaa !38
  %118 = load ptr, ptr %14, align 8, !tbaa !3
  %119 = getelementptr inbounds nuw %struct.Curl_addrinfo, ptr %118, i32 0, i32 7
  store ptr null, ptr %119, align 8, !tbaa !8
  %120 = load ptr, ptr %14, align 8, !tbaa !3
  %121 = getelementptr inbounds nuw i8, ptr %120, i64 48
  %122 = load ptr, ptr %14, align 8, !tbaa !3
  %123 = getelementptr inbounds nuw %struct.Curl_addrinfo, ptr %122, i32 0, i32 6
  store ptr %121, ptr %123, align 8, !tbaa !37
  %124 = load ptr, ptr %14, align 8, !tbaa !3
  %125 = getelementptr inbounds nuw %struct.Curl_addrinfo, ptr %124, i32 0, i32 6
  %126 = load ptr, ptr %125, align 8, !tbaa !37
  %127 = load ptr, ptr %10, align 8, !tbaa !17
  %128 = getelementptr inbounds nuw %struct.addrinfo, ptr %127, i32 0, i32 5
  %129 = load ptr, ptr %128, align 8, !tbaa !27
  %130 = load i64, ptr %15, align 8, !tbaa !24
  call void @llvm.memcpy.p0.p0.i64(ptr align 2 %126, ptr align 2 %129, i64 %130, i1 false)
  %131 = load i64, ptr %18, align 8, !tbaa !24
  %132 = icmp ne i64 %131, 0
  br i1 %132, label %133, label %148

133:                                              ; preds = %89
  %134 = load ptr, ptr %14, align 8, !tbaa !3
  %135 = getelementptr inbounds nuw %struct.Curl_addrinfo, ptr %134, i32 0, i32 6
  %136 = load ptr, ptr %135, align 8, !tbaa !37
  %137 = load i64, ptr %15, align 8, !tbaa !24
  %138 = getelementptr inbounds nuw i8, ptr %136, i64 %137
  %139 = load ptr, ptr %14, align 8, !tbaa !3
  %140 = getelementptr inbounds nuw %struct.Curl_addrinfo, ptr %139, i32 0, i32 5
  store ptr %138, ptr %140, align 8, !tbaa !38
  %141 = load ptr, ptr %14, align 8, !tbaa !3
  %142 = getelementptr inbounds nuw %struct.Curl_addrinfo, ptr %141, i32 0, i32 5
  %143 = load ptr, ptr %142, align 8, !tbaa !38
  %144 = load ptr, ptr %10, align 8, !tbaa !17
  %145 = getelementptr inbounds nuw %struct.addrinfo, ptr %144, i32 0, i32 6
  %146 = load ptr, ptr %145, align 8, !tbaa !22
  %147 = load i64, ptr %18, align 8, !tbaa !24
  call void @llvm.memcpy.p0.p0.i64(ptr align 1 %143, ptr align 1 %146, i64 %147, i1 false)
  br label %148

148:                                              ; preds = %133, %89
  %149 = load ptr, ptr %12, align 8, !tbaa !3
  %150 = icmp ne ptr %149, null
  br i1 %150, label %153, label %151

151:                                              ; preds = %148
  %152 = load ptr, ptr %14, align 8, !tbaa !3
  store ptr %152, ptr %12, align 8, !tbaa !3
  br label %153

153:                                              ; preds = %151, %148
  %154 = load ptr, ptr %13, align 8, !tbaa !3
  %155 = icmp ne ptr %154, null
  br i1 %155, label %156, label %160

156:                                              ; preds = %153
  %157 = load ptr, ptr %14, align 8, !tbaa !3
  %158 = load ptr, ptr %13, align 8, !tbaa !3
  %159 = getelementptr inbounds nuw %struct.Curl_addrinfo, ptr %158, i32 0, i32 7
  store ptr %157, ptr %159, align 8, !tbaa !8
  br label %160

160:                                              ; preds = %156, %153
  %161 = load ptr, ptr %14, align 8, !tbaa !3
  store ptr %161, ptr %13, align 8, !tbaa !3
  store i32 0, ptr %17, align 4
  br label %162

162:                                              ; preds = %160, %88, %78, %70, %58
  call void @llvm.lifetime.end.p0(i64 8, ptr %18) #7
  %163 = load i32, ptr %17, align 4
  switch i32 %163, label %190 [
    i32 0, label %164
    i32 4, label %165
    i32 2, label %169
  ]

164:                                              ; preds = %162
  br label %165

165:                                              ; preds = %164, %162
  %166 = load ptr, ptr %10, align 8, !tbaa !17
  %167 = getelementptr inbounds nuw %struct.addrinfo, ptr %166, i32 0, i32 7
  %168 = load ptr, ptr %167, align 8, !tbaa !39
  store ptr %168, ptr %10, align 8, !tbaa !17
  br label %30, !llvm.loop !40

169:                                              ; preds = %162, %30
  %170 = load ptr, ptr %11, align 8, !tbaa !17
  %171 = icmp ne ptr %170, null
  br i1 %171, label %172, label %174

172:                                              ; preds = %169
  %173 = load ptr, ptr %11, align 8, !tbaa !17
  call void @freeaddrinfo(ptr noundef %173) #7
  br label %174

174:                                              ; preds = %172, %169
  %175 = load i32, ptr %16, align 4, !tbaa !21
  %176 = icmp ne i32 %175, 0
  br i1 %176, label %177, label %179

177:                                              ; preds = %174
  %178 = load ptr, ptr %12, align 8, !tbaa !3
  call void @Curl_freeaddrinfo(ptr noundef %178)
  store ptr null, ptr %12, align 8, !tbaa !3
  br label %184

179:                                              ; preds = %174
  %180 = load ptr, ptr %12, align 8, !tbaa !3
  %181 = icmp ne ptr %180, null
  br i1 %181, label %183, label %182

182:                                              ; preds = %179
  store i32 -2, ptr %16, align 4, !tbaa !21
  br label %183

183:                                              ; preds = %182, %179
  br label %184

184:                                              ; preds = %183, %177
  %185 = load ptr, ptr %12, align 8, !tbaa !3
  %186 = load ptr, ptr %9, align 8, !tbaa !19
  store ptr %185, ptr %186, align 8, !tbaa !3
  %187 = load i32, ptr %16, align 4, !tbaa !21
  store i32 %187, ptr %5, align 4
  store i32 1, ptr %17, align 4
  br label %188

188:                                              ; preds = %184, %26
  call void @llvm.lifetime.end.p0(i64 4, ptr %16) #7
  call void @llvm.lifetime.end.p0(i64 8, ptr %15) #7
  call void @llvm.lifetime.end.p0(i64 8, ptr %14) #7
  call void @llvm.lifetime.end.p0(i64 8, ptr %13) #7
  call void @llvm.lifetime.end.p0(i64 8, ptr %12) #7
  call void @llvm.lifetime.end.p0(i64 8, ptr %11) #7
  call void @llvm.lifetime.end.p0(i64 8, ptr %10) #7
  %189 = load i32, ptr %5, align 4
  ret i32 %189

190:                                              ; preds = %162
  unreachable
}